; Function Attrs: mustprogress uwtable
define noundef zeroext i1 @_ZNK7testing10TestResult6FailedEv(ptr noundef nonnull readonly align 8 captures(none) dereferenceable(120) %0) local_unnamed_addr #4 align 2 {
  %2 = getelementptr inbounds nuw i8, ptr %0, i64 56
  %3 = getelementptr inbounds nuw i8, ptr %0, i64 64
  %4 = load ptr, ptr %3, align 8, !tbaa !191
  %5 = load ptr, ptr %2, align 8, !tbaa !199
  %6 = ptrtoint ptr %4 to i64
  %7 = ptrtoint ptr %5 to i64
  %8 = sub i64 %6, %7
  %9 = sdiv exact i64 %8, 112
  %10 = trunc i64 %9 to i32
  %.not711 = icmp sgt i32 %10, 0
  br i1 %.not711, label %.lr.ph.preheader, label %_ZNK7testing10TestResult17GetTestPartResultEi.exit._crit_edge

.lr.ph.preheader:                                 ; preds = %1
  %wide.trip.count = and i64 %9, 2147483647
  br label %.lr.ph

.lr.ph:                                           ; preds = %_ZNK7testing10TestResult17GetTestPartResultEi.exit, %.lr.ph.preheader
  %indvars.iv = phi i64 [ 0, %.lr.ph.preheader ], [ %indvars.iv.next, %_ZNK7testing10TestResult17GetTestPartResultEi.exit ]
  %exitcond.not = icmp eq i64 %indvars.iv, %9
  br i1 %exitcond.not, label %11, label %_ZNK7testing10TestResult17GetTestPartResultEi.exit

11:                                               ; preds = %.lr.ph
  tail call void (ptr, ...) @_ZSt24__throw_out_of_range_fmtPKcz(ptr noundef nonnull @.str.490, i64 noundef %9, i64 noundef %9) #58
  unreachable

_ZNK7testing10TestResult17GetTestPartResultEi.exit: ; preds = %.lr.ph
  %12 = getelementptr inbounds nuw %"class.testing::TestPartResult", ptr %5, i64 %indvars.iv
  %13 = load i32, ptr %12, align 8, !tbaa !208
  %.not.not = icmp ne i32 %13, 0
  %indvars.iv.next = add nuw nsw i64 %indvars.iv, 1
  %exitcond17.not = icmp eq i64 %indvars.iv.next, %wide.trip.count
  %or.cond = select i1 %.not.not, i1 true, i1 %exitcond17.not
  br i1 %or.cond, label %_ZNK7testing10TestResult17GetTestPartResultEi.exit._crit_edge, label %.lr.ph, !llvm.loop !240

_ZNK7testing10TestResult17GetTestPartResultEi.exit._crit_edge: ; preds = %_ZNK7testing10TestResult17GetTestPartResultEi.exit, %1
  %.not7.lcssa = phi i1 [ false, %1 ], [ %.not.not, %_ZNK7testing10TestResult17GetTestPartResultEi.exit ]
  ret i1 %.not7.lcssa
}